target datalayout = "e-m:e-p270:32:32-p271:32:32-p272:64:64-i64:64-i128:128-f80:128-n8:16:32:64-S128"
target triple = "x86_64-pc-linux-gnu"

%"class.std::__cxx11::basic_string" = type { %"struct.std::__cxx11::basic_string<char>::_Alloc_hider", i64, %union.anon }
%"struct.std::__cxx11::basic_string<char>::_Alloc_hider" = type { ptr }
%union.anon = type { i64, [8 x i8] }
%"class.std::vector.3" = type { %"struct.std::_Vector_base.4" }
%"struct.std::_Vector_base.4" = type { %"struct.std::_Vector_base<colvar *, std::allocator<colvar *>>::_Vector_impl" }
%"struct.std::_Vector_base<colvar *, std::allocator<colvar *>>::_Vector_impl" = type { %"struct.std::_Vector_base<colvar *, std::allocator<colvar *>>::_Vector_impl_data" }
%"struct.std::_Vector_base<colvar *, std::allocator<colvar *>>::_Vector_impl_data" = type { ptr, ptr, ptr }
%"class.std::vector.8" = type { %"struct.std::_Vector_base.9" }
%"struct.std::_Vector_base.9" = type { %"struct.std::_Vector_base<colvarvalue, std::allocator<colvarvalue>>::_Vector_impl" }
%"struct.std::_Vector_base<colvarvalue, std::allocator<colvarvalue>>::_Vector_impl" = type { %"struct.std::_Vector_base<colvarvalue, std::allocator<colvarvalue>>::_Vector_impl_data" }
%"struct.std::_Vector_base<colvarvalue, std::allocator<colvarvalue>>::_Vector_impl_data" = type { ptr, ptr, ptr }
%"class.std::vector.49" = type { %"struct.std::_Vector_base.50" }
%"struct.std::_Vector_base.50" = type { %"struct.std::_Vector_base<double, std::allocator<double>>::_Vector_impl" }
%"struct.std::_Vector_base<double, std::allocator<double>>::_Vector_impl" = type { %"struct.std::_Vector_base<double, std::allocator<double>>::_Vector_impl_data" }
%"struct.std::_Vector_base<double, std::allocator<double>>::_Vector_impl_data" = type { ptr, ptr, ptr }
%"class.std::vector.13" = type { %"struct.std::_Vector_base.14" }
%"struct.std::_Vector_base.14" = type { %"struct.std::_Vector_base<int, std::allocator<int>>::_Vector_impl" }
%"struct.std::_Vector_base<int, std::allocator<int>>::_Vector_impl" = type { %"struct.std::_Vector_base<int, std::allocator<int>>::_Vector_impl_data" }
%"struct.std::_Vector_base<int, std::allocator<int>>::_Vector_impl_data" = type { ptr, ptr, ptr }
%class.colvarparse = type { %class.colvarparams, %"class.std::__cxx11::basic_string", %"class.std::__cxx11::basic_string", %"class.std::__cxx11::list", %"class.std::map.29", %"class.std::__cxx11::list.34", %"class.std::__cxx11::list.34", %"class.std::__cxx11::basic_string" }
%class.colvarparams = type { ptr, %"class.std::map", %"class.std::map.21" }
%"class.std::map" = type { %"class.std::_Rb_tree" }
%"class.std::_Rb_tree" = type { %"struct.std::_Rb_tree<std::__cxx11::basic_string<char>, std::pair<const std::__cxx11::basic_string<char>, const void *>, std::_Select1st<std::pair<const std::__cxx11::basic_string<char>, const void *>>, std::less<std::__cxx11::basic_string<char>>>::_Rb_tree_impl" }
%"struct.std::_Rb_tree<std::__cxx11::basic_string<char>, std::pair<const std::__cxx11::basic_string<char>, const void *>, std::_Select1st<std::pair<const std::__cxx11::basic_string<char>, const void *>>, std::less<std::__cxx11::basic_string<char>>>::_Rb_tree_impl" = type { %"struct.std::_Rb_tree_key_compare", %"struct.std::_Rb_tree_header" }
%"struct.std::_Rb_tree_key_compare" = type { %"struct.std::less" }
%"struct.std::less" = type { i8 }
%"struct.std::_Rb_tree_header" = type { %"struct.std::_Rb_tree_node_base", i64 }
%"struct.std::_Rb_tree_node_base" = type { i32, ptr, ptr, ptr }
%"class.std::map.21" = type { %"class.std::_Rb_tree.22" }
%"class.std::_Rb_tree.22" = type { %"struct.std::_Rb_tree<std::__cxx11::basic_string<char>, std::pair<const std::__cxx11::basic_string<char>, const colvarvalue *>, std::_Select1st<std::pair<const std::__cxx11::basic_string<char>, const colvarvalue *>>, std::less<std::__cxx11::basic_string<char>>>::_Rb_tree_impl" }
%"struct.std::_Rb_tree<std::__cxx11::basic_string<char>, std::pair<const std::__cxx11::basic_string<char>, const colvarvalue *>, std::_Select1st<std::pair<const std::__cxx11::basic_string<char>, const colvarvalue *>>, std::less<std::__cxx11::basic_string<char>>>::_Rb_tree_impl" = type { %"struct.std::_Rb_tree_key_compare", %"struct.std::_Rb_tree_header" }
%"class.std::__cxx11::list" = type { %"class.std::__cxx11::_List_base" }
%"class.std::__cxx11::_List_base" = type { %"struct.std::__cxx11::_List_base<std::__cxx11::basic_string<char>, std::allocator<std::__cxx11::basic_string<char>>>::_List_impl" }
%"struct.std::__cxx11::_List_base<std::__cxx11::basic_string<char>, std::allocator<std::__cxx11::basic_string<char>>>::_List_impl" = type { %"struct.std::__detail::_List_node_header" }
%"struct.std::__detail::_List_node_header" = type { %"struct.std::__detail::_List_node_base", i64 }
%"struct.std::__detail::_List_node_base" = type { ptr, ptr }
%"class.std::map.29" = type { %"class.std::_Rb_tree.30" }
%"class.std::_Rb_tree.30" = type { %"struct.std::_Rb_tree<std::__cxx11::basic_string<char>, std::pair<const std::__cxx11::basic_string<char>, colvarparse::key_set_mode>, std::_Select1st<std::pair<const std::__cxx11::basic_string<char>, colvarparse::key_set_mode>>, std::less<std::__cxx11::basic_string<char>>>::_Rb_tree_impl" }
%"struct.std::_Rb_tree<std::__cxx11::basic_string<char>, std::pair<const std::__cxx11::basic_string<char>, colvarparse::key_set_mode>, std::_Select1st<std::pair<const std::__cxx11::basic_string<char>, colvarparse::key_set_mode>>, std::less<std::__cxx11::basic_string<char>>>::_Rb_tree_impl" = type { %"struct.std::_Rb_tree_key_compare", %"struct.std::_Rb_tree_header" }
%"class.std::__cxx11::list.34" = type { %"class.std::__cxx11::_List_base.35" }
%"class.std::__cxx11::_List_base.35" = type { %"struct.std::__cxx11::_List_base<unsigned long, std::allocator<unsigned long>>::_List_impl" }
%"struct.std::__cxx11::_List_base<unsigned long, std::allocator<unsigned long>>::_List_impl" = type { %"struct.std::__detail::_List_node_header" }
%class.colvar_grid = type <{ %class.colvarparse, i64, %"class.std::vector.13", %"class.std::vector.13", i64, i64, %"class.std::vector.49", %"class.std::vector.54", %"class.std::vector.3", %"class.std::vector.59", %"class.std::vector.8", %"class.std::vector.8", %"class.std::vector.59", %"class.std::vector.59", %"class.std::vector.59", %"class.std::vector.49", i8, i8, [6 x i8] }>
%"class.std::vector.54" = type { %"struct.std::_Vector_base.55" }
%"struct.std::_Vector_base.55" = type { %"struct.std::_Vector_base<unsigned long, std::allocator<unsigned long>>::_Vector_impl" }
%"struct.std::_Vector_base<unsigned long, std::allocator<unsigned long>>::_Vector_impl" = type { %"struct.std::_Vector_base<unsigned long, std::allocator<unsigned long>>::_Vector_impl_data" }
%"struct.std::_Vector_base<unsigned long, std::allocator<unsigned long>>::_Vector_impl_data" = type { ptr, ptr, ptr }
%"class.std::vector.59" = type { %"struct.std::_Bvector_base" }
%"struct.std::_Bvector_base" = type { %"struct.std::_Bvector_base<std::allocator<bool>>::_Bvector_impl" }
%"struct.std::_Bvector_base<std::allocator<bool>>::_Bvector_impl" = type { %"struct.std::_Bvector_base<std::allocator<bool>>::_Bvector_impl_data" }
%"struct.std::_Bvector_base<std::allocator<bool>>::_Bvector_impl_data" = type { %"struct.std::_Bit_iterator", %"struct.std::_Bit_iterator", ptr }
%"struct.std::_Bit_iterator" = type { %"struct.std::_Bit_iterator_base.base", [4 x i8] }
%"struct.std::_Bit_iterator_base.base" = type <{ ptr, i32 }>
%class.colvarproxy_system = type { ptr, %"class.std::__cxx11::basic_string", double, double, i8, double, double, double, double, double, i8, i32, %"class.colvarmodule::rvector", %"class.colvarmodule::rvector", %"class.colvarmodule::rvector", %"class.colvarmodule::rvector", %"class.colvarmodule::rvector", %"class.colvarmodule::rvector" }
%"class.colvarmodule::rvector" = type { double, double, double }

@_ZN12colvarmodule5proxyE = external global ptr, align 8

; Function Attrs: mustprogress nounwind uwtable
define linkonce_odr noundef nonnull align 8 dereferenceable(8) ptr @_ZNSt6vectorIdSaIdEEixEm(ptr noundef nonnull align 8 dereferenceable(24) %0, i64 noundef %1) #1 comdat align 2 {
  %3 = alloca ptr, align 8
  %4 = alloca i64, align 8
  store ptr %0, ptr %3, align 8
  store i64 %1, ptr %4, align 8
  %5 = load ptr, ptr %3, align 8
  %6 = getelementptr inbounds %"struct.std::_Vector_base.50", ptr %5, i32 0, i32 0
  %7 = getelementptr inbounds %"struct.std::_Vector_base<double, std::allocator<double>>::_Vector_impl_data", ptr %6, i32 0, i32 0
  %8 = load ptr, ptr %7, align 8
  %9 = load i64, ptr %4, align 8
  %10 = getelementptr inbounds double, ptr %8, i64 %9
  ret ptr %10
}

; Function Attrs: mustprogress nounwind uwtable
define linkonce_odr noundef nonnull align 8 dereferenceable(8) ptr @_ZNKSt6vectorIdSaIdEEixEm(ptr noundef nonnull align 8 dereferenceable(24) %0, i64 noundef %1) #1 comdat align 2 {
  %3 = alloca ptr, align 8
  %4 = alloca i64, align 8
  store ptr %0, ptr %3, align 8
  store i64 %1, ptr %4, align 8
  %5 = load ptr, ptr %3, align 8
  %6 = getelementptr inbounds %"struct.std::_Vector_base.50", ptr %5, i32 0, i32 0
  %7 = getelementptr inbounds %"struct.std::_Vector_base<double, std::allocator<double>>::_Vector_impl_data", ptr %6, i32 0, i32 0
  %8 = load ptr, ptr %7, align 8
  %9 = load i64, ptr %4, align 8
  %10 = getelementptr inbounds double, ptr %8, i64 %9
  ret ptr %10
}

; Function Attrs: mustprogress nounwind uwtable
define linkonce_odr noundef i64 @_ZNKSt6vectorIdSaIdEE4sizeEv(ptr noundef nonnull align 8 dereferenceable(24) %0) #1 comdat align 2 {
  %2 = alloca ptr, align 8
  store ptr %0, ptr %2, align 8
  %3 = load ptr, ptr %2, align 8
  %4 = getelementptr inbounds %"struct.std::_Vector_base.50", ptr %3, i32 0, i32 0
  %5 = getelementptr inbounds %"struct.std::_Vector_base<double, std::allocator<double>>::_Vector_impl_data", ptr %4, i32 0, i32 1
  %6 = load ptr, ptr %5, align 8
  %7 = getelementptr inbounds %"struct.std::_Vector_base.50", ptr %3, i32 0, i32 0
  %8 = getelementptr inbounds %"struct.std::_Vector_base<double, std::allocator<double>>::_Vector_impl_data", ptr %7, i32 0, i32 0
  %9 = load ptr, ptr %8, align 8
  %10 = ptrtoint ptr %6 to i64
  %11 = ptrtoint ptr %9 to i64
  %12 = sub i64 %10, %11
  %13 = sdiv exact i64 %12, 8
  ret i64 %13
}

; Function Attrs: mustprogress nounwind uwtable
define linkonce_odr void @_ZN11colvar_gridIdE9set_valueEmRKd(ptr noundef nonnull align 8 dereferenceable(698) %0, i64 noundef %1, ptr noundef nonnull align 8 dereferenceable(8) %2) #1 comdat align 2 {
  %4 = alloca ptr, align 8
  %5 = alloca i64, align 8
  %6 = alloca ptr, align 8
  store ptr %0, ptr %4, align 8
  store i64 %1, ptr %5, align 8
  store ptr %2, ptr %6, align 8
  %7 = load ptr, ptr %4, align 8
  %8 = load ptr, ptr %6, align 8
  %9 = load double, ptr %8, align 8
  %10 = getelementptr inbounds %class.colvar_grid, ptr %7, i32 0, i32 6
  %11 = load i64, ptr %5, align 8
  %12 = call noundef nonnull align 8 dereferenceable(8) ptr @_ZNSt6vectorIdSaIdEEixEm(ptr noundef nonnull align 8 dereferenceable(24) %10, i64 noundef %11) #13
  store double %9, ptr %12, align 8
  ret void
}

; Function Attrs: mustprogress nounwind uwtable
define linkonce_odr noundef double @_ZN12colvarmodule4lognERKd(ptr noundef nonnull align 8 dereferenceable(8) %0) #1 comdat align 2 {
  %2 = alloca ptr, align 8
  store ptr %0, ptr %2, align 8
  %3 = load ptr, ptr %2, align 8
  %4 = load double, ptr %3, align 8
  %5 = call double @log(double noundef %4) #13
  ret double %5
}

; Function Attrs: mustprogress nounwind uwtable
define linkonce_odr noundef nonnull align 8 dereferenceable(8) ptr @_ZNK11colvar_gridIdE5valueEm(ptr noundef nonnull align 8 dereferenceable(698) %0, i64 noundef %1) #1 comdat align 2 {
  %3 = alloca ptr, align 8
  %4 = alloca i64, align 8
  store ptr %0, ptr %3, align 8
  store i64 %1, ptr %4, align 8
  %5 = load ptr, ptr %3, align 8
  %6 = getelementptr inbounds %class.colvar_grid, ptr %5, i32 0, i32 6
  %7 = load i64, ptr %4, align 8
  %8 = call noundef nonnull align 8 dereferenceable(8) ptr @_ZNKSt6vectorIdSaIdEEixEm(ptr noundef nonnull align 8 dereferenceable(24) %6, i64 noundef %7) #13
  ret ptr %8
}

; Function Attrs: mustprogress nounwind uwtable
define linkonce_odr noundef double @_ZNK18colvarproxy_system18target_temperatureEv(ptr noundef nonnull align 8 dereferenceable(256) %0) #1 comdat align 2 {
  %2 = alloca ptr, align 8
  store ptr %0, ptr %2, align 8
  %3 = load ptr, ptr %2, align 8
  %4 = getelementptr inbounds %class.colvarproxy_system, ptr %3, i32 0, i32 6
  %5 = load double, ptr %4, align 8
  ret double %5
}

; Function Attrs: mustprogress nounwind uwtable
define linkonce_odr noundef double @_ZNK18colvarproxy_system9boltzmannEv(ptr noundef nonnull align 8 dereferenceable(256) %0) #1 comdat align 2 {
  %2 = alloca ptr, align 8
  store ptr %0, ptr %2, align 8
  %3 = load ptr, ptr %2, align 8
  %4 = getelementptr inbounds %class.colvarproxy_system, ptr %3, i32 0, i32 5
  %5 = load double, ptr %4, align 8
  ret double %5
}

; Function Attrs: mustprogress nounwind uwtable
define linkonce_odr noundef i64 @_ZNK11colvar_gridIdE12raw_data_numEv(ptr noundef nonnull align 8 dereferenceable(698) %0) #1 comdat align 2 {
  %2 = alloca ptr, align 8
  store ptr %0, ptr %2, align 8
  %3 = load ptr, ptr %2, align 8
  %4 = getelementptr inbounds %class.colvar_grid, ptr %3, i32 0, i32 6
  %5 = call noundef i64 @_ZNKSt6vectorIdSaIdEE4sizeEv(ptr noundef nonnull align 8 dereferenceable(24) %4) #13
  ret i64 %5
}

; Function Attrs: mustprogress uwtable
define void @_ZNK22colvarbias_reweightaMD11hist_to_pmfEP18colvar_grid_scalarPKS0_(ptr noundef nonnull align 8 dereferenceable(552) %0, ptr noundef %1, ptr noundef %2) #4 align 2 {
  %4 = alloca ptr, align 8
  %5 = alloca ptr, align 8
  %6 = alloca ptr, align 8
  %7 = alloca ptr, align 8
  %8 = alloca double, align 8
  %9 = alloca i8, align 1
  %10 = alloca i8, align 1
  %11 = alloca double, align 8
  %12 = alloca double, align 8
  %13 = alloca i64, align 8
  %14 = alloca double, align 8
  %15 = alloca double, align 8
  %16 = alloca double, align 8
  %17 = alloca double, align 8
  %18 = alloca double, align 8
  %19 = alloca double, align 8
  %20 = alloca double, align 8
  store ptr %0, ptr %4, align 8
  store ptr %1, ptr %5, align 8
  store ptr %2, ptr %6, align 8
  %21 = call noundef ptr @_ZN12colvarmodule4mainEv()
  %22 = load ptr, ptr @_ZN12colvarmodule5proxyE, align 8
  store ptr %22, ptr %7, align 8
  %23 = load ptr, ptr %5, align 8
  %24 = call noundef i64 @_ZNK11colvar_gridIdE12raw_data_numEv(ptr noundef nonnull align 8 dereferenceable(698) %23)
  %25 = icmp eq i64 %24, 0
  br i1 %25, label %26, label %27

26:                                               ; preds = %3
  br label %123

27:                                               ; preds = %3
  %28 = load ptr, ptr %7, align 8
  %29 = call noundef double @_ZNK18colvarproxy_system9boltzmannEv(ptr noundef nonnull align 8 dereferenceable(256) %28)
  %30 = load ptr, ptr %7, align 8
  %31 = call noundef double @_ZNK18colvarproxy_system18target_temperatureEv(ptr noundef nonnull align 8 dereferenceable(256) %30)
  %32 = fmul double %29, %31
  store double %32, ptr %8, align 8
  store i8 1, ptr %9, align 1
  store i8 1, ptr %10, align 1
  store double 0.000000e+00, ptr %11, align 8
  store double 0.000000e+00, ptr %12, align 8
  store i64 0, ptr %13, align 8
  store i64 0, ptr %13, align 8
  br label %33

33:                                               ; preds = %87, %27
  %34 = load i64, ptr %13, align 8
  %35 = load ptr, ptr %5, align 8
  %36 = call noundef i64 @_ZNK11colvar_gridIdE12raw_data_numEv(ptr noundef nonnull align 8 dereferenceable(698) %35)
  %37 = icmp ult i64 %34, %36
  br i1 %37, label %38, label %90

38:                                               ; preds = %33
  %39 = load ptr, ptr %6, align 8
  %40 = load i64, ptr %13, align 8
  %41 = call noundef nonnull align 8 dereferenceable(8) ptr @_ZNK11colvar_gridIdE5valueEm(ptr noundef nonnull align 8 dereferenceable(698) %39, i64 noundef %40)
  %42 = load double, ptr %41, align 8
  store double %42, ptr %14, align 8
  %43 = load double, ptr %14, align 8
  %44 = fcmp ogt double %43, 0.000000e+00
  br i1 %44, label %45, label %86

45:                                               ; preds = %38
  %46 = load ptr, ptr %5, align 8
  %47 = load i64, ptr %13, align 8
  %48 = call noundef nonnull align 8 dereferenceable(8) ptr @_ZNK11colvar_gridIdE5valueEm(ptr noundef nonnull align 8 dereferenceable(698) %46, i64 noundef %47)
  %49 = load double, ptr %48, align 8
  store double %49, ptr %15, align 8
  %50 = load double, ptr %8, align 8
  %51 = fmul double -1.000000e+00, %50
  %52 = call noundef double @_ZN12colvarmodule4lognERKd(ptr noundef nonnull align 8 dereferenceable(8) %15)
  %53 = fmul double %51, %52
  store double %53, ptr %16, align 8
  %54 = load ptr, ptr %5, align 8
  %55 = load i64, ptr %13, align 8
  call void @_ZN11colvar_gridIdE9set_valueEmRKd(ptr noundef nonnull align 8 dereferenceable(698) %54, i64 noundef %55, ptr noundef nonnull align 8 dereferenceable(8) %16)
  %56 = load i8, ptr %9, align 1
  %57 = trunc i8 %56 to i1
  br i1 %57, label %58, label %60

58:                                               ; preds = %45
  %59 = load double, ptr %16, align 8
  store double %59, ptr %11, align 8
  store i8 0, ptr %9, align 1
  br label %70

60:                                               ; preds = %45
  %61 = load double, ptr %16, align 8
  %62 = load double, ptr %11, align 8
  %63 = fcmp olt double %61, %62
  br i1 %63, label %64, label %66

64:                                               ; preds = %60
  %65 = load double, ptr %16, align 8
  br label %68

66:                                               ; preds = %60
  %67 = load double, ptr %11, align 8
  br label %68

68:                                               ; preds = %66, %64
  %69 = phi double [ %65, %64 ], [ %67, %66 ]
  store double %69, ptr %11, align 8
  br label %70

70:                                               ; preds = %68, %58
  %71 = load i8, ptr %10, align 1
  %72 = trunc i8 %71 to i1
  br i1 %72, label %73, label %75

73:                                               ; preds = %70
  %74 = load double, ptr %16, align 8
  store double %74, ptr %12, align 8
  store i8 0, ptr %10, align 1
  br label %85

75:                                               ; preds = %70
  %76 = load double, ptr %16, align 8
  %77 = load double, ptr %12, align 8
  %78 = fcmp ogt double %76, %77
  br i1 %78, label %79, label %81

79:                                               ; preds = %75
  %80 = load double, ptr %16, align 8
  br label %83

81:                                               ; preds = %75
  %82 = load double, ptr %12, align 8
  br label %83

83:                                               ; preds = %81, %79
  %84 = phi double [ %80, %79 ], [ %82, %81 ]
  store double %84, ptr %12, align 8
  br label %85

85:                                               ; preds = %83, %73
  br label %86

86:                                               ; preds = %85, %38
  br label %87

87:                                               ; preds = %86
  %88 = load i64, ptr %13, align 8
  %89 = add i64 %88, 1
  store i64 %89, ptr %13, align 8
  br label %33, !llvm.loop !20

90:                                               ; preds = %33
  store i64 0, ptr %13, align 8
  br label %91

91:                                               ; preds = %120, %90
  %92 = load i64, ptr %13, align 8
  %93 = load ptr, ptr %5, align 8
  %94 = call noundef i64 @_ZNK11colvar_gridIdE12raw_data_numEv(ptr noundef nonnull align 8 dereferenceable(698) %93)
  %95 = icmp ult i64 %92, %94
  br i1 %95, label %96, label %123

96:                                               ; preds = %91
  %97 = load ptr, ptr %6, align 8
  %98 = load i64, ptr %13, align 8
  %99 = call noundef nonnull align 8 dereferenceable(8) ptr @_ZNK11colvar_gridIdE5valueEm(ptr noundef nonnull align 8 dereferenceable(698) %97, i64 noundef %98)
  %100 = load double, ptr %99, align 8
  store double %100, ptr %17, align 8
  %101 = load double, ptr %17, align 8
  %102 = fcmp ogt double %101, 0.000000e+00
  br i1 %102, label %103, label %113

103:                                              ; preds = %96
  %104 = load ptr, ptr %5, align 8
  %105 = load i64, ptr %13, align 8
  %106 = call noundef nonnull align 8 dereferenceable(8) ptr @_ZNK11colvar_gridIdE5valueEm(ptr noundef nonnull align 8 dereferenceable(698) %104, i64 noundef %105)
  %107 = load double, ptr %106, align 8
  store double %107, ptr %18, align 8
  %108 = load ptr, ptr %5, align 8
  %109 = load i64, ptr %13, align 8
  %110 = load double, ptr %18, align 8
  %111 = load double, ptr %11, align 8
  %112 = fsub double %110, %111
  store double %112, ptr %19, align 8
  call void @_ZN11colvar_gridIdE9set_valueEmRKd(ptr noundef nonnull align 8 dereferenceable(698) %108, i64 noundef %109, ptr noundef nonnull align 8 dereferenceable(8) %19)
  br label %119

113:                                              ; preds = %96
  %114 = load ptr, ptr %5, align 8
  %115 = load i64, ptr %13, align 8
  %116 = load double, ptr %12, align 8
  %117 = load double, ptr %11, align 8
  %118 = fsub double %116, %117
  store double %118, ptr %20, align 8
  call void @_ZN11colvar_gridIdE9set_valueEmRKd(ptr noundef nonnull align 8 dereferenceable(698) %114, i64 noundef %115, ptr noundef nonnull align 8 dereferenceable(8) %20)
  br label %119

119:                                              ; preds = %113, %103
  br label %120

120:                                              ; preds = %119
  %121 = load i64, ptr %13, align 8
  %122 = add i64 %121, 1
  store i64 %122, ptr %13, align 8
  br label %91, !llvm.loop !21

123:                                              ; preds = %91, %26
  ret void
}