; Function Attrs: mustprogress uwtable
define void @_ZNK22colvarbias_reweightaMD11hist_to_pmfEP18colvar_grid_scalarPKS0_(ptr nocapture nonnull readnone align 8 %0, ptr nocapture noundef readonly %1, ptr nocapture noundef readonly %2) local_unnamed_addr #4 align 2 {
  %4 = tail call noundef ptr @_ZN12colvarmodule4mainEv()
  %5 = getelementptr inbounds i8, ptr %1, i64 392
  %6 = getelementptr inbounds i8, ptr %1, i64 400
  %7 = load ptr, ptr %6, align 8
  %8 = load ptr, ptr %5, align 8
  %9 = icmp eq ptr %7, %8
  br i1 %9, label %.loopexit, label %.lr.ph

.lr.ph:                                           ; preds = %3
  %10 = load ptr, ptr @_ZN12colvarmodule5proxyE, align 8
  %11 = getelementptr inbounds i8, ptr %10, i64 72
  %12 = load double, ptr %11, align 8
  %13 = getelementptr inbounds i8, ptr %10, i64 64
  %14 = load double, ptr %13, align 8
  %15 = getelementptr inbounds i8, ptr %2, i64 392
  %16 = fneg double %14
  %17 = fmul double %12, %16
  br label %19

.preheader:                                       ; preds = %37
  %.not59 = icmp eq ptr %39, %40
  br i1 %.not59, label %.loopexit, label %.lr.ph58

.lr.ph58:                                         ; preds = %.preheader
  %18 = getelementptr inbounds i8, ptr %2, i64 392
  br label %46

19:                                               ; preds = %.lr.ph, %37
  %20 = phi ptr [ %8, %.lr.ph ], [ %40, %37 ]
  %.055 = phi i1 [ true, %.lr.ph ], [ %.2, %37 ]
  %.03554 = phi i1 [ true, %.lr.ph ], [ %.136, %37 ]
  %.03753 = phi double [ 0.000000e+00, %.lr.ph ], [ %.239, %37 ]
  %.04052 = phi i64 [ 0, %.lr.ph ], [ %38, %37 ]
  %.04251 = phi double [ 0.000000e+00, %.lr.ph ], [ %.143, %37 ]
  %21 = load ptr, ptr %15, align 8
  %22 = getelementptr inbounds double, ptr %21, i64 %.04052
  %23 = load double, ptr %22, align 8
  %24 = fcmp ogt double %23, 0.000000e+00
  br i1 %24, label %25, label %37

25:                                               ; preds = %19
  %26 = getelementptr inbounds double, ptr %20, i64 %.04052
  %27 = load double, ptr %26, align 8
  %28 = tail call noundef double @log(double noundef %27) #17
  %29 = fmul double %17, %28
  %30 = load ptr, ptr %5, align 8
  %31 = getelementptr inbounds double, ptr %30, i64 %.04052
  store double %29, ptr %31, align 8
  %32 = fcmp olt double %29, %.03753
  %33 = select i1 %.055, i1 true, i1 %32
  %.138 = select i1 %33, double %29, double %.03753
  br i1 %.03554, label %37, label %34

34:                                               ; preds = %25
  %35 = fcmp ogt double %29, %.04251
  %36 = select i1 %35, double %29, double %.04251
  br label %37

37:                                               ; preds = %25, %19, %34
  %.143 = phi double [ %36, %34 ], [ %.04251, %19 ], [ %29, %25 ]
  %.239 = phi double [ %.138, %34 ], [ %.03753, %19 ], [ %.138, %25 ]
  %.136 = phi i1 [ false, %34 ], [ %.03554, %19 ], [ false, %25 ]
  %.2 = phi i1 [ false, %34 ], [ %.055, %19 ], [ false, %25 ]
  %38 = add nuw i64 %.04052, 1
  %39 = load ptr, ptr %6, align 8
  %40 = load ptr, ptr %5, align 8
  %41 = ptrtoint ptr %39 to i64
  %42 = ptrtoint ptr %40 to i64
  %43 = sub i64 %41, %42
  %44 = ashr exact i64 %43, 3
  %45 = icmp ult i64 %38, %44
  br i1 %45, label %19, label %.preheader, !llvm.loop !27

46:                                               ; preds = %.lr.ph58, %55
  %47 = phi ptr [ %40, %.lr.ph58 ], [ %58, %55 ]
  %.14157 = phi i64 [ 0, %.lr.ph58 ], [ %56, %55 ]
  %48 = load ptr, ptr %18, align 8
  %49 = getelementptr inbounds double, ptr %48, i64 %.14157
  %50 = load double, ptr %49, align 8
  %51 = fcmp ogt double %50, 0.000000e+00
  %52 = getelementptr inbounds double, ptr %47, i64 %.14157
  br i1 %51, label %53, label %55

53:                                               ; preds = %46
  %54 = load double, ptr %52, align 8
  br label %55

55:                                               ; preds = %46, %53
  %.pn = phi double [ %54, %53 ], [ %.143, %46 ]
  %.sink = fsub double %.pn, %.239
  store double %.sink, ptr %52, align 8
  %56 = add nuw i64 %.14157, 1
  %57 = load ptr, ptr %6, align 8
  %58 = load ptr, ptr %5, align 8
  %59 = ptrtoint ptr %57 to i64
  %60 = ptrtoint ptr %58 to i64
  %61 = sub i64 %59, %60
  %62 = ashr exact i64 %61, 3
  %63 = icmp ult i64 %56, %62
  br i1 %63, label %46, label %.loopexit, !llvm.loop !28

.loopexit:                                        ; preds = %55, %.preheader, %3
  ret void
}